target datalayout = "e-m:e-p270:32:32-p271:32:32-p272:64:64-i64:64-i128:128-f80:128-n8:16:32:64-S128"
target triple = "x86_64-pc-linux-gnu"

%struct._dcerpc_info = type { ptr, i32, i64, i8, i8, i8, i32, i32, i32, i32, i32, i32, i32, i32, ptr, ptr, ptr, ptr, %struct.anon }
%struct.anon = type { i8, ptr, ptr, ptr, i8 }

@dissect_ndr_nt_SE_GROUP_ATTRIBUTES.attr = internal constant [6 x ptr] [ptr @hf_nt_se_group_attrs_mandatory, ptr @hf_nt_se_group_attrs_enabled_by_default, ptr @hf_nt_se_group_attrs_enabled, ptr @hf_nt_se_group_attrs_owner, ptr @hf_nt_se_group_attrs_resource_group, ptr null], align 16
@hf_nt_se_group_attrs = internal global i32 0, align 4
@ett_nt_se_group_attrs = internal global i32 0, align 4

; Function Attrs: null_pointer_is_valid sspstrong uwtable
define hidden i32 @dissect_ndr_nt_SE_GROUP_ATTRIBUTES(ptr noundef %0, i32 noundef %1, ptr noundef %2, ptr noundef %3, ptr noundef %4, ptr noundef %5) #0 {
  %7 = alloca i32, align 4
  %8 = alloca ptr, align 8
  %9 = alloca i32, align 4
  %10 = alloca ptr, align 8
  %11 = alloca ptr, align 8
  %12 = alloca ptr, align 8
  %13 = alloca ptr, align 8
  %14 = alloca i32, align 4
  %15 = alloca i32, align 4
  store ptr %0, ptr %8, align 8
  store i32 %1, ptr %9, align 4
  store ptr %2, ptr %10, align 8
  store ptr %3, ptr %11, align 8
  store ptr %4, ptr %12, align 8
  store ptr %5, ptr %13, align 8
  call void @llvm.lifetime.start.p0(i64 4, ptr %14) #13
  %16 = load ptr, ptr %12, align 8
  %17 = getelementptr inbounds nuw %struct._dcerpc_info, ptr %16, i32 0, i32 4
  %18 = load i8, ptr %17, align 1, !range !6, !noundef !7
  %19 = trunc i8 %18 to i1
  br i1 %19, label %20, label %22

20:                                               ; preds = %6
  %21 = load i32, ptr %9, align 4
  store i32 %21, ptr %7, align 4
  store i32 1, ptr %15, align 4
  br label %39

22:                                               ; preds = %6
  %23 = load ptr, ptr %8, align 8
  %24 = load i32, ptr %9, align 4
  %25 = load ptr, ptr %10, align 8
  %26 = load ptr, ptr %12, align 8
  %27 = load ptr, ptr %13, align 8
  %28 = call i32 @dissect_ndr_uint32(ptr noundef %23, i32 noundef %24, ptr noundef %25, ptr noundef null, ptr noundef %26, ptr noundef %27, i32 noundef -1, ptr noundef %14)
  store i32 %28, ptr %9, align 4
  %29 = load ptr, ptr %11, align 8
  %30 = load ptr, ptr %8, align 8
  %31 = load i32, ptr %9, align 4
  %32 = sub i32 %31, 4
  %33 = load i32, ptr @hf_nt_se_group_attrs, align 4
  %34 = load i32, ptr @ett_nt_se_group_attrs, align 4
  %35 = load i32, ptr %14, align 4
  %36 = zext i32 %35 to i64
  %37 = call ptr @proto_tree_add_bitmask_value_with_flags(ptr noundef %29, ptr noundef %30, i32 noundef %32, i32 noundef %33, i32 noundef %34, ptr noundef @dissect_ndr_nt_SE_GROUP_ATTRIBUTES.attr, i64 noundef %36, i32 noundef 1)
  %38 = load i32, ptr %9, align 4
  store i32 %38, ptr %7, align 4
  store i32 1, ptr %15, align 4
  br label %39

39:                                               ; preds = %22, %20
  call void @llvm.lifetime.end.p0(i64 4, ptr %14) #13
  %40 = load i32, ptr %7, align 4
  ret i32 %40
}